; Function Attrs: nounwind uwtable
define internal i32 @externalEntityInitProcessor2(ptr noundef %0, ptr noundef %1, ptr noundef %2, ptr noundef writeonly captures(none) %3) #0 {
  %5 = alloca ptr, align 8
  call void @llvm.lifetime.start.p0(i64 8, ptr nonnull %5) #23
  store ptr %1, ptr %5, align 8, !tbaa !185
  %6 = getelementptr inbounds nuw i8, ptr %0, i64 304
  %7 = load ptr, ptr %6, align 8, !tbaa !186
  %8 = getelementptr inbounds nuw i8, ptr %7, i64 8
  %9 = load ptr, ptr %8, align 8, !tbaa !103
  %10 = call i32 %9(ptr noundef %7, ptr noundef %1, ptr noundef %2, ptr noundef nonnull %5) #23
  switch i32 %10, label %30 [
    i32 14, label %11
    i32 -1, label %18
    i32 -2, label %24
  ]

11:                                               ; preds = %4
  %12 = load ptr, ptr %5, align 8, !tbaa !185
  %13 = icmp eq ptr %12, %2
  br i1 %13, label %14, label %30

14:                                               ; preds = %11
  %15 = getelementptr inbounds nuw i8, ptr %0, i64 900
  %16 = load i8, ptr %15, align 4, !tbaa !187
  %.not27 = icmp eq i8 %16, 0
  br i1 %.not27, label %17, label %30

17:                                               ; preds = %14
  store ptr %12, ptr %3, align 8, !tbaa !185
  br label %33

18:                                               ; preds = %4
  %19 = getelementptr inbounds nuw i8, ptr %0, i64 900
  %20 = load i8, ptr %19, align 4, !tbaa !187
  %.not26 = icmp eq i8 %20, 0
  br i1 %.not26, label %21, label %22

21:                                               ; preds = %18
  store ptr %1, ptr %3, align 8, !tbaa !185
  br label %33

22:                                               ; preds = %18
  %23 = getelementptr inbounds nuw i8, ptr %0, i64 536
  store ptr %1, ptr %23, align 8, !tbaa !188
  br label %33

24:                                               ; preds = %4
  %25 = getelementptr inbounds nuw i8, ptr %0, i64 900
  %26 = load i8, ptr %25, align 4, !tbaa !187
  %.not = icmp eq i8 %26, 0
  br i1 %.not, label %27, label %28

27:                                               ; preds = %24
  store ptr %1, ptr %3, align 8, !tbaa !185
  br label %33

28:                                               ; preds = %24
  %29 = getelementptr inbounds nuw i8, ptr %0, i64 536
  store ptr %1, ptr %29, align 8, !tbaa !188
  br label %33

30:                                               ; preds = %11, %14, %4
  %.024 = phi ptr [ %1, %4 ], [ %12, %14 ], [ %12, %11 ]
  %31 = getelementptr inbounds nuw i8, ptr %0, i64 520
  store ptr @externalEntityInitProcessor3, ptr %31, align 8, !tbaa !61
  %32 = call i32 @externalEntityInitProcessor3(ptr noundef nonnull %0, ptr noundef %.024, ptr noundef %2, ptr noundef %3)
  br label %33

33:                                               ; preds = %30, %28, %27, %22, %21, %17
  %.0 = phi i32 [ %32, %30 ], [ 6, %28 ], [ 0, %27 ], [ 5, %22 ], [ 0, %21 ], [ 0, %17 ]
  call void @llvm.lifetime.end.p0(i64 8, ptr nonnull %5) #23
  ret i32 %.0
}